target datalayout = "e-m:e-p270:32:32-p271:32:32-p272:64:64-i64:64-i128:128-f80:128-n8:16:32:64-S128"
target triple = "x86_64-pc-linux-gnu"

%struct._lv_vector_path_t = type { i32, %struct._lv_array_t, %struct._lv_array_t }
%struct._lv_array_t = type { ptr, i32, i32, i32, i8 }

; Function Attrs: inlinehint nounwind uwtable
define internal void @lv_memzero(ptr noundef %0, i64 noundef %1) #4 {
  %3 = alloca ptr, align 8
  %4 = alloca i64, align 8
  store ptr %0, ptr %3, align 8, !tbaa !3
  store i64 %1, ptr %4, align 8, !tbaa !20
  %5 = load ptr, ptr %3, align 8, !tbaa !3
  %6 = load i64, ptr %4, align 8, !tbaa !20
  call void @lv_memset(ptr noundef %5, i8 noundef zeroext 0, i64 noundef %6)
  ret void
}

; Function Attrs: nounwind uwtable
define ptr @lv_vector_path_create(i32 noundef %0) #0 {
  %2 = alloca i32, align 4
  %3 = alloca ptr, align 8
  store i32 %0, ptr %2, align 4, !tbaa !12
  call void @llvm.lifetime.start.p0(i64 8, ptr %3) #7
  %4 = call ptr @lv_malloc(i64 noundef 56)
  store ptr %4, ptr %3, align 8, !tbaa !3
  br label %5

5:                                                ; preds = %1
  %6 = load ptr, ptr %3, align 8, !tbaa !3
  %7 = icmp ne ptr %6, null
  br i1 %7, label %14, label %8

8:                                                ; preds = %5
  br label %9

9:                                                ; preds = %8
  br label %10

10:                                               ; preds = %9
  br label %11

11:                                               ; preds = %10
  br label %12

12:                                               ; preds = %13, %11
  br label %13

13:                                               ; preds = %12
  br label %12

14:                                               ; preds = %5
  br label %15

15:                                               ; preds = %14
  br label %16

16:                                               ; preds = %15
  %17 = load ptr, ptr %3, align 8, !tbaa !3
  call void @lv_memzero(ptr noundef %17, i64 noundef 56)
  %18 = load i32, ptr %2, align 4, !tbaa !12
  %19 = load ptr, ptr %3, align 8, !tbaa !3
  %20 = getelementptr inbounds nuw %struct._lv_vector_path_t, ptr %19, i32 0, i32 0
  store i32 %18, ptr %20, align 8, !tbaa !16
  %21 = load ptr, ptr %3, align 8, !tbaa !3
  %22 = getelementptr inbounds nuw %struct._lv_vector_path_t, ptr %21, i32 0, i32 1
  call void @lv_array_init(ptr noundef %22, i32 noundef 8, i32 noundef 4)
  %23 = load ptr, ptr %3, align 8, !tbaa !3
  %24 = getelementptr inbounds nuw %struct._lv_vector_path_t, ptr %23, i32 0, i32 2
  call void @lv_array_init(ptr noundef %24, i32 noundef 8, i32 noundef 8)
  %25 = load ptr, ptr %3, align 8, !tbaa !3
  call void @llvm.lifetime.end.p0(i64 8, ptr %3) #7
  ret ptr %25
}