; Function Attrs: nounwind uwtable
define nonnull ptr @lv_vector_path_create(i32 noundef %0) local_unnamed_addr #3 {
  %2 = tail call ptr @lv_malloc(i64 noundef 56) #9
  %.not = icmp eq ptr %2, null
  br i1 %.not, label %.preheader, label %3

.preheader:                                       ; preds = %1, %.preheader
  br label %.preheader

3:                                                ; preds = %1
  tail call void @lv_memset(ptr noundef nonnull %2, i8 noundef zeroext 0, i64 noundef 56) #9
  store i32 %0, ptr %2, align 8, !tbaa !12
  %4 = getelementptr inbounds nuw i8, ptr %2, i64 8
  tail call void @lv_array_init(ptr noundef nonnull %4, i32 noundef 8, i32 noundef 4) #9
  %5 = getelementptr inbounds nuw i8, ptr %2, i64 32
  tail call void @lv_array_init(ptr noundef nonnull %5, i32 noundef 8, i32 noundef 8) #9
  ret ptr %2
}